target datalayout = "e-m:e-p270:32:32-p271:32:32-p272:64:64-i64:64-i128:128-f80:128-n8:16:32:64-S128"
target triple = "x86_64-pc-linux-gnu"

%struct.ml_dsa_key_st = type { ptr, ptr, ptr, ptr, [32 x i8], [64 x i8], [32 x i8], ptr, ptr, ptr, i32, i32, %struct.vector_st, %struct.vector_st, %struct.vector_st, %struct.vector_st }
%struct.vector_st = type { ptr, i64 }
%struct.ml_dsa_params_st = type { ptr, i32, i32, i32, i32, i32, i64, i64, i32, i32, i32, i32, i64, i64, i64 }

@.str = private unnamed_addr constant [38 x i8] c"../openssl/crypto/ml_dsa/ml_dsa_key.c\00", align 1
@.str.3 = private unnamed_addr constant [41 x i8] c"../openssl/crypto/ml_dsa/ml_dsa_vector.h\00", align 1

; Function Attrs: inlinehint nounwind uwtable
define internal void @vector_free(ptr noundef %0) #3 {
  %2 = alloca ptr, align 8
  store ptr %0, ptr %2, align 8, !tbaa !35
  %3 = load ptr, ptr %2, align 8, !tbaa !35
  %4 = getelementptr inbounds nuw %struct.vector_st, ptr %3, i32 0, i32 0
  %5 = load ptr, ptr %4, align 8, !tbaa !37
  call void @CRYPTO_free(ptr noundef %5, ptr noundef @.str.3, i32 noundef 46)
  %6 = load ptr, ptr %2, align 8, !tbaa !35
  %7 = getelementptr inbounds nuw %struct.vector_st, ptr %6, i32 0, i32 0
  store ptr null, ptr %7, align 8, !tbaa !37
  %8 = load ptr, ptr %2, align 8, !tbaa !35
  %9 = getelementptr inbounds nuw %struct.vector_st, ptr %8, i32 0, i32 1
  store i64 0, ptr %9, align 8, !tbaa !38
  ret void
}

; Function Attrs: inlinehint nounwind uwtable
define internal void @vector_zero(ptr noundef %0) #3 {
  %2 = alloca ptr, align 8
  store ptr %0, ptr %2, align 8, !tbaa !35
  %3 = load ptr, ptr %2, align 8, !tbaa !35
  %4 = getelementptr inbounds nuw %struct.vector_st, ptr %3, i32 0, i32 0
  %5 = load ptr, ptr %4, align 8, !tbaa !37
  %6 = icmp ne ptr %5, null
  br i1 %6, label %7, label %15

7:                                                ; preds = %1
  %8 = load ptr, ptr %2, align 8, !tbaa !35
  %9 = getelementptr inbounds nuw %struct.vector_st, ptr %8, i32 0, i32 0
  %10 = load ptr, ptr %9, align 8, !tbaa !37
  %11 = load ptr, ptr %2, align 8, !tbaa !35
  %12 = getelementptr inbounds nuw %struct.vector_st, ptr %11, i32 0, i32 1
  %13 = load i64, ptr %12, align 8, !tbaa !38
  %14 = mul i64 %13, 1024
  call void @llvm.memset.p0.i64(ptr align 4 %10, i8 0, i64 %14, i1 false)
  br label %15

15:                                               ; preds = %7, %1
  ret void
}

; Function Attrs: nounwind uwtable
define void @ossl_ml_dsa_key_reset(ptr noundef %0) #0 {
  %2 = alloca ptr, align 8
  store ptr %0, ptr %2, align 8, !tbaa !3
  %3 = load ptr, ptr %2, align 8, !tbaa !3
  %4 = getelementptr inbounds nuw %struct.ml_dsa_key_st, ptr %3, i32 0, i32 14
  call void @vector_zero(ptr noundef %4)
  %5 = load ptr, ptr %2, align 8, !tbaa !3
  %6 = getelementptr inbounds nuw %struct.ml_dsa_key_st, ptr %5, i32 0, i32 15
  call void @vector_zero(ptr noundef %6)
  %7 = load ptr, ptr %2, align 8, !tbaa !3
  %8 = getelementptr inbounds nuw %struct.ml_dsa_key_st, ptr %7, i32 0, i32 13
  call void @vector_zero(ptr noundef %8)
  %9 = load ptr, ptr %2, align 8, !tbaa !3
  %10 = getelementptr inbounds nuw %struct.ml_dsa_key_st, ptr %9, i32 0, i32 15
  call void @vector_free(ptr noundef %10)
  %11 = load ptr, ptr %2, align 8, !tbaa !3
  %12 = getelementptr inbounds nuw %struct.ml_dsa_key_st, ptr %11, i32 0, i32 12
  call void @vector_free(ptr noundef %12)
  %13 = load ptr, ptr %2, align 8, !tbaa !3
  %14 = getelementptr inbounds nuw %struct.ml_dsa_key_st, ptr %13, i32 0, i32 6
  %15 = getelementptr inbounds [32 x i8], ptr %14, i64 0, i64 0
  call void @OPENSSL_cleanse(ptr noundef %15, i64 noundef 32)
  %16 = load ptr, ptr %2, align 8, !tbaa !3
  %17 = getelementptr inbounds nuw %struct.ml_dsa_key_st, ptr %16, i32 0, i32 7
  %18 = load ptr, ptr %17, align 8, !tbaa !24
  call void @CRYPTO_free(ptr noundef %18, ptr noundef @.str, i32 noundef 159)
  %19 = load ptr, ptr %2, align 8, !tbaa !3
  %20 = getelementptr inbounds nuw %struct.ml_dsa_key_st, ptr %19, i32 0, i32 7
  store ptr null, ptr %20, align 8, !tbaa !24
  %21 = load ptr, ptr %2, align 8, !tbaa !3
  %22 = getelementptr inbounds nuw %struct.ml_dsa_key_st, ptr %21, i32 0, i32 8
  %23 = load ptr, ptr %22, align 8, !tbaa !25
  %24 = icmp ne ptr %23, null
  br i1 %24, label %25, label %34

25:                                               ; preds = %1
  %26 = load ptr, ptr %2, align 8, !tbaa !3
  %27 = getelementptr inbounds nuw %struct.ml_dsa_key_st, ptr %26, i32 0, i32 8
  %28 = load ptr, ptr %27, align 8, !tbaa !25
  %29 = load ptr, ptr %2, align 8, !tbaa !3
  %30 = getelementptr inbounds nuw %struct.ml_dsa_key_st, ptr %29, i32 0, i32 1
  %31 = load ptr, ptr %30, align 8, !tbaa !8
  %32 = getelementptr inbounds nuw %struct.ml_dsa_params_st, ptr %31, i32 0, i32 12
  %33 = load i64, ptr %32, align 8, !tbaa !26
  call void @CRYPTO_clear_free(ptr noundef %28, i64 noundef %33, ptr noundef @.str, i32 noundef 162)
  br label %34

34:                                               ; preds = %25, %1
  %35 = load ptr, ptr %2, align 8, !tbaa !3
  %36 = getelementptr inbounds nuw %struct.ml_dsa_key_st, ptr %35, i32 0, i32 8
  store ptr null, ptr %36, align 8, !tbaa !25
  %37 = load ptr, ptr %2, align 8, !tbaa !3
  %38 = getelementptr inbounds nuw %struct.ml_dsa_key_st, ptr %37, i32 0, i32 9
  %39 = load ptr, ptr %38, align 8, !tbaa !18
  %40 = icmp ne ptr %39, null
  br i1 %40, label %41, label %45

41:                                               ; preds = %34
  %42 = load ptr, ptr %2, align 8, !tbaa !3
  %43 = getelementptr inbounds nuw %struct.ml_dsa_key_st, ptr %42, i32 0, i32 9
  %44 = load ptr, ptr %43, align 8, !tbaa !18
  call void @CRYPTO_clear_free(ptr noundef %44, i64 noundef 32, ptr noundef @.str, i32 noundef 165)
  br label %45

45:                                               ; preds = %41, %34
  %46 = load ptr, ptr %2, align 8, !tbaa !3
  %47 = getelementptr inbounds nuw %struct.ml_dsa_key_st, ptr %46, i32 0, i32 9
  store ptr null, ptr %47, align 8, !tbaa !18
  ret void
}