; Function Attrs: nounwind uwtable
define void @ossl_ml_dsa_key_reset(ptr noundef initializes((200, 208)) %0) local_unnamed_addr #1 {
  %2 = getelementptr inbounds nuw i8, ptr %0, i64 224
  %3 = load ptr, ptr %2, align 8, !tbaa !28
  %.not.i = icmp eq ptr %3, null
  br i1 %.not.i, label %vector_zero.exit, label %4

4:                                                ; preds = %1
  %5 = getelementptr inbounds nuw i8, ptr %0, i64 232
  %6 = load i64, ptr %5, align 8, !tbaa !29
  %7 = shl i64 %6, 10
  tail call void @llvm.memset.p0.i64(ptr nonnull align 4 %3, i8 0, i64 %7, i1 false)
  br label %vector_zero.exit

vector_zero.exit:                                 ; preds = %1, %4
  %8 = getelementptr inbounds nuw i8, ptr %0, i64 240
  %9 = load ptr, ptr %8, align 8, !tbaa !28
  %.not.i17 = icmp eq ptr %9, null
  br i1 %.not.i17, label %vector_zero.exit18, label %10

10:                                               ; preds = %vector_zero.exit
  %11 = getelementptr inbounds nuw i8, ptr %0, i64 248
  %12 = load i64, ptr %11, align 8, !tbaa !29
  %13 = shl i64 %12, 10
  tail call void @llvm.memset.p0.i64(ptr nonnull align 4 %9, i8 0, i64 %13, i1 false)
  br label %vector_zero.exit18

vector_zero.exit18:                               ; preds = %vector_zero.exit, %10
  %14 = getelementptr inbounds nuw i8, ptr %0, i64 208
  %15 = load ptr, ptr %14, align 8, !tbaa !28
  %.not.i19 = icmp eq ptr %15, null
  br i1 %.not.i19, label %vector_zero.exit20, label %16

16:                                               ; preds = %vector_zero.exit18
  %17 = getelementptr inbounds nuw i8, ptr %0, i64 216
  %18 = load i64, ptr %17, align 8, !tbaa !29
  %19 = shl i64 %18, 10
  tail call void @llvm.memset.p0.i64(ptr nonnull align 4 %15, i8 0, i64 %19, i1 false)
  br label %vector_zero.exit20

vector_zero.exit20:                               ; preds = %vector_zero.exit18, %16
  %20 = load ptr, ptr %8, align 8, !tbaa !28
  tail call void @CRYPTO_free(ptr noundef %20, ptr noundef nonnull @.str.3, i32 noundef 46) #9
  tail call void @llvm.memset.p0.i64(ptr noundef nonnull align 8 dereferenceable(16) %8, i8 0, i64 16, i1 false)
  %21 = getelementptr inbounds nuw i8, ptr %0, i64 192
  %22 = load ptr, ptr %21, align 8, !tbaa !28
  tail call void @CRYPTO_free(ptr noundef %22, ptr noundef nonnull @.str.3, i32 noundef 46) #9
  tail call void @llvm.memset.p0.i64(ptr noundef nonnull align 8 dereferenceable(16) %21, i8 0, i64 16, i1 false)
  %23 = getelementptr inbounds nuw i8, ptr %0, i64 128
  tail call void @OPENSSL_cleanse(ptr noundef nonnull %23, i64 noundef 32) #9
  %24 = getelementptr inbounds nuw i8, ptr %0, i64 160
  %25 = load ptr, ptr %24, align 8, !tbaa !19
  tail call void @CRYPTO_free(ptr noundef %25, ptr noundef nonnull @.str, i32 noundef 159) #9
  store ptr null, ptr %24, align 8, !tbaa !19
  %26 = getelementptr inbounds nuw i8, ptr %0, i64 168
  %27 = load ptr, ptr %26, align 8, !tbaa !20
  %.not = icmp eq ptr %27, null
  br i1 %.not, label %33, label %28

28:                                               ; preds = %vector_zero.exit20
  %29 = getelementptr inbounds nuw i8, ptr %0, i64 8
  %30 = load ptr, ptr %29, align 8, !tbaa !3
  %31 = getelementptr inbounds nuw i8, ptr %30, i64 64
  %32 = load i64, ptr %31, align 8, !tbaa !21
  tail call void @CRYPTO_clear_free(ptr noundef nonnull %27, i64 noundef %32, ptr noundef nonnull @.str, i32 noundef 162) #9
  br label %33

33:                                               ; preds = %28, %vector_zero.exit20
  store ptr null, ptr %26, align 8, !tbaa !20
  %34 = getelementptr inbounds nuw i8, ptr %0, i64 176
  %35 = load ptr, ptr %34, align 8, !tbaa !16
  %.not16 = icmp eq ptr %35, null
  br i1 %.not16, label %37, label %36

36:                                               ; preds = %33
  tail call void @CRYPTO_clear_free(ptr noundef nonnull %35, i64 noundef 32, ptr noundef nonnull @.str, i32 noundef 165) #9
  br label %37

37:                                               ; preds = %36, %33
  store ptr null, ptr %34, align 8, !tbaa !16
  ret void
}